; Function Attrs: null_pointer_is_valid sspstrong uwtable
define internal zeroext i1 @dissect_iscsi_heur(ptr noundef %0, ptr noundef %1, ptr noundef %2, ptr readnone captures(none) %3) #0 {
  %5 = tail call i32 @tvb_captured_length(ptr noundef %0)
  %6 = icmp ult i32 %5, 48
  br i1 %6, label %10, label %7

7:                                                ; preds = %4
  %8 = tail call fastcc i32 @dissect_iscsi(ptr noundef %0, ptr noundef %1, ptr noundef %2, i1 noundef zeroext true)
  %9 = icmp ne i32 %8, 0
  br label %10

10:                                               ; preds = %4, %7
  %.0 = phi i1 [ %9, %7 ], [ false, %4 ]
  ret i1 %.0
}